; Function Attrs: mustprogress uwtable
define void @_ZN6icu_7511NGramParser15parseCharactersEPNS_9InputTextE(ptr noundef nonnull align 8 dereferenceable(48) %this, ptr noundef %det) unnamed_addr #6 align 2 {
entry:
  %vtable53 = load ptr, ptr %this, align 8
  %vfn54 = getelementptr inbounds i8, ptr %vtable53, i64 16
  %0 = load ptr, ptr %vfn54, align 8
  %call55 = tail call noundef i32 %0(ptr noundef nonnull align 8 dereferenceable(48) %this, ptr noundef %det)
  %cmp56 = icmp sgt i32 %call55, -1
  br i1 %cmp56, label %while.body.lr.ph, label %while.end

while.body.lr.ph:                                 ; preds = %entry
  %charMap = getelementptr inbounds i8, ptr %this, i64 40
  %ngram.i = getelementptr inbounds i8, ptr %this, i64 8
  %ngramCount.i.i = getelementptr inbounds i8, ptr %this, i64 24
  %ngramList.i.i = getelementptr inbounds i8, ptr %this, i64 16
  %hitCount.i.i = getelementptr inbounds i8, ptr %this, i64 28
  br label %while.body

while.body:                                       ; preds = %while.body.lr.ph, %if.end9
  %call58 = phi i32 [ %call55, %while.body.lr.ph ], [ %call, %if.end9 ]
  %ignoreSpace.057 = phi i8 [ 0, %while.body.lr.ph ], [ %ignoreSpace.1, %if.end9 ]
  %1 = load ptr, ptr %charMap, align 8
  %idxprom = zext nneg i32 %call58 to i64
  %arrayidx = getelementptr inbounds i8, ptr %1, i64 %idxprom
  %2 = load i8, ptr %arrayidx, align 1
  %conv = zext i8 %2 to i32
  %cmp2.not = icmp eq i8 %2, 0
  br i1 %cmp2.not, label %if.end9, label %if.then

if.then:                                          ; preds = %while.body
  %cmp4 = icmp eq i8 %2, 32
  br i1 %cmp4, label %land.lhs.true, label %if.then.split

if.then.split:                                    ; preds = %if.then
  %3 = load i32, ptr %ngram.i, align 8
  %shl.i = shl i32 %3, 8
  %shl.i.masked = and i32 %shl.i, 16776960
  %and.i = or disjoint i32 %shl.i.masked, %conv
  store i32 %and.i, ptr %ngram.i, align 8
  %4 = load i32, ptr %ngramCount.i.i, align 8
  %add.i.i = add nsw i32 %4, 1
  store i32 %add.i.i, ptr %ngramCount.i.i, align 8
  %5 = load ptr, ptr %ngramList.i.i, align 8
  %arrayidx.i.i.i = getelementptr inbounds i8, ptr %5, i64 128
  %6 = load i32, ptr %arrayidx.i.i.i, align 4
  %cmp.not.i.i.i = icmp sgt i32 %6, %and.i
  %spec.select.i.i.i = select i1 %cmp.not.i.i.i, i32 0, i32 32
  %add3.i.i.i = or disjoint i32 %spec.select.i.i.i, 16
  %idxprom4.i.i.i = zext nneg i32 %add3.i.i.i to i64
  %arrayidx5.i.i.i = getelementptr inbounds i32, ptr %5, i64 %idxprom4.i.i.i
  %7 = load i32, ptr %arrayidx5.i.i.i, align 4
  %cmp6.not.i.i.i = icmp sgt i32 %7, %and.i
  %index.1.i.i.i = select i1 %cmp6.not.i.i.i, i32 %spec.select.i.i.i, i32 %add3.i.i.i
  %add10.i.i.i = or disjoint i32 %index.1.i.i.i, 8
  %idxprom11.i.i.i = zext nneg i32 %add10.i.i.i to i64
  %arrayidx12.i.i.i = getelementptr inbounds i32, ptr %5, i64 %idxprom11.i.i.i
  %8 = load i32, ptr %arrayidx12.i.i.i, align 4
  %cmp13.not.i.i.i = icmp sgt i32 %8, %and.i
  %index.2.i.i.i = select i1 %cmp13.not.i.i.i, i32 %index.1.i.i.i, i32 %add10.i.i.i
  %add17.i.i.i = or disjoint i32 %index.2.i.i.i, 4
  %idxprom18.i.i.i = zext nneg i32 %add17.i.i.i to i64
  %arrayidx19.i.i.i = getelementptr inbounds i32, ptr %5, i64 %idxprom18.i.i.i
  %9 = load i32, ptr %arrayidx19.i.i.i, align 4
  %cmp20.not.i.i.i = icmp sgt i32 %9, %and.i
  %index.3.i.i.i = select i1 %cmp20.not.i.i.i, i32 %index.2.i.i.i, i32 %add17.i.i.i
  %add24.i.i.i = add nuw nsw i32 %index.3.i.i.i, 2
  %idxprom25.i.i.i = zext nneg i32 %add24.i.i.i to i64
  %arrayidx26.i.i.i = getelementptr inbounds i32, ptr %5, i64 %idxprom25.i.i.i
  %10 = load i32, ptr %arrayidx26.i.i.i, align 4
  %cmp27.not.i.i.i = icmp sgt i32 %10, %and.i
  %index.4.i.i.i = select i1 %cmp27.not.i.i.i, i32 %index.3.i.i.i, i32 %add24.i.i.i
  %add31.i.i.i = add nuw nsw i32 %index.4.i.i.i, 1
  %idxprom32.i.i.i = zext nneg i32 %add31.i.i.i to i64
  %arrayidx33.i.i.i = getelementptr inbounds i32, ptr %5, i64 %idxprom32.i.i.i
  %11 = load i32, ptr %arrayidx33.i.i.i, align 4
  %cmp34.not.i.i.i = icmp sgt i32 %11, %and.i
  %index.5.i.i.i = select i1 %cmp34.not.i.i.i, i32 %index.4.i.i.i, i32 %add31.i.i.i
  %idxprom38.i.i.i = zext nneg i32 %index.5.i.i.i to i64
  %arrayidx39.i.i.i = getelementptr inbounds i32, ptr %5, i64 %idxprom38.i.i.i
  %12 = load i32, ptr %arrayidx39.i.i.i, align 4
  %cmp40.i.i.i = icmp sgt i32 %12, %and.i
  %sub.i.i.i = sext i1 %cmp40.i.i.i to i32
  %index.6.i.i.i = add nsw i32 %index.5.i.i.i, %sub.i.i.i
  %cmp43.i.i.i = icmp slt i32 %index.6.i.i.i, 0
  br i1 %cmp43.i.i.i, label %if.end, label %lor.lhs.false.i.i.i

lor.lhs.false.i.i.i:                              ; preds = %if.then.split
  %idxprom44.i.i.i = zext nneg i32 %index.6.i.i.i to i64
  %arrayidx45.i.i.i = getelementptr inbounds i32, ptr %5, i64 %idxprom44.i.i.i
  %13 = load i32, ptr %arrayidx45.i.i.i, align 4
  %cmp46.not.i.i.i = icmp eq i32 %13, %and.i
  br i1 %cmp46.not.i.i.i, label %if.end.sink.split, label %if.end

land.lhs.true:                                    ; preds = %if.then
  %14 = and i8 %ignoreSpace.057, 1
  %tobool.not = icmp eq i8 %14, 0
  br i1 %tobool.not, label %land.lhs.true.split, label %if.end

land.lhs.true.split:                              ; preds = %land.lhs.true
  %15 = load i32, ptr %ngram.i, align 8
  %shl.i5 = shl i32 %15, 8
  %add.i6 = and i32 %shl.i5, 16776960
  %and.i7 = or disjoint i32 %add.i6, 32
  store i32 %and.i7, ptr %ngram.i, align 8
  %16 = load i32, ptr %ngramCount.i.i, align 8
  %add.i.i9 = add nsw i32 %16, 1
  store i32 %add.i.i9, ptr %ngramCount.i.i, align 8
  %17 = load ptr, ptr %ngramList.i.i, align 8
  %arrayidx.i.i.i11 = getelementptr inbounds i8, ptr %17, i64 128
  %18 = load i32, ptr %arrayidx.i.i.i11, align 4
  %cmp.not.i.i.i12 = icmp sgt i32 %18, %and.i7
  %spec.select.i.i.i13 = select i1 %cmp.not.i.i.i12, i32 0, i32 32
  %add3.i.i.i14 = or disjoint i32 %spec.select.i.i.i13, 16
  %idxprom4.i.i.i15 = zext nneg i32 %add3.i.i.i14 to i64
  %arrayidx5.i.i.i16 = getelementptr inbounds i32, ptr %17, i64 %idxprom4.i.i.i15
  %19 = load i32, ptr %arrayidx5.i.i.i16, align 4
  %cmp6.not.i.i.i17 = icmp sgt i32 %19, %and.i7
  %index.1.i.i.i18 = select i1 %cmp6.not.i.i.i17, i32 %spec.select.i.i.i13, i32 %add3.i.i.i14
  %add10.i.i.i19 = or disjoint i32 %index.1.i.i.i18, 8
  %idxprom11.i.i.i20 = zext nneg i32 %add10.i.i.i19 to i64
  %arrayidx12.i.i.i21 = getelementptr inbounds i32, ptr %17, i64 %idxprom11.i.i.i20
  %20 = load i32, ptr %arrayidx12.i.i.i21, align 4
  %cmp13.not.i.i.i22 = icmp sgt i32 %20, %and.i7
  %index.2.i.i.i23 = select i1 %cmp13.not.i.i.i22, i32 %index.1.i.i.i18, i32 %add10.i.i.i19
  %add17.i.i.i24 = or disjoint i32 %index.2.i.i.i23, 4
  %idxprom18.i.i.i25 = zext nneg i32 %add17.i.i.i24 to i64
  %arrayidx19.i.i.i26 = getelementptr inbounds i32, ptr %17, i64 %idxprom18.i.i.i25
  %21 = load i32, ptr %arrayidx19.i.i.i26, align 4
  %cmp20.not.i.i.i27 = icmp sgt i32 %21, %and.i7
  %index.3.i.i.i28 = select i1 %cmp20.not.i.i.i27, i32 %index.2.i.i.i23, i32 %add17.i.i.i24
  %add24.i.i.i29 = add nuw nsw i32 %index.3.i.i.i28, 2
  %idxprom25.i.i.i30 = zext nneg i32 %add24.i.i.i29 to i64
  %arrayidx26.i.i.i31 = getelementptr inbounds i32, ptr %17, i64 %idxprom25.i.i.i30
  %22 = load i32, ptr %arrayidx26.i.i.i31, align 4
  %cmp27.not.i.i.i32 = icmp sgt i32 %22, %and.i7
  %index.4.i.i.i33 = select i1 %cmp27.not.i.i.i32, i32 %index.3.i.i.i28, i32 %add24.i.i.i29
  %add31.i.i.i34 = add nuw nsw i32 %index.4.i.i.i33, 1
  %idxprom32.i.i.i35 = zext nneg i32 %add31.i.i.i34 to i64
  %arrayidx33.i.i.i36 = getelementptr inbounds i32, ptr %17, i64 %idxprom32.i.i.i35
  %23 = load i32, ptr %arrayidx33.i.i.i36, align 4
  %cmp34.not.i.i.i37 = icmp sgt i32 %23, %and.i7
  %index.5.i.i.i38 = select i1 %cmp34.not.i.i.i37, i32 %index.4.i.i.i33, i32 %add31.i.i.i34
  %idxprom38.i.i.i39 = zext nneg i32 %index.5.i.i.i38 to i64
  %arrayidx39.i.i.i40 = getelementptr inbounds i32, ptr %17, i64 %idxprom38.i.i.i39
  %24 = load i32, ptr %arrayidx39.i.i.i40, align 4
  %cmp40.i.i.i41 = icmp sgt i32 %24, %and.i7
  %sub.i.i.i42 = sext i1 %cmp40.i.i.i41 to i32
  %index.6.i.i.i43 = add nsw i32 %index.5.i.i.i38, %sub.i.i.i42
  %cmp43.i.i.i44 = icmp slt i32 %index.6.i.i.i43, 0
  br i1 %cmp43.i.i.i44, label %if.end, label %lor.lhs.false.i.i.i45

lor.lhs.false.i.i.i45:                            ; preds = %land.lhs.true.split
  %idxprom44.i.i.i46 = zext nneg i32 %index.6.i.i.i43 to i64
  %arrayidx45.i.i.i47 = getelementptr inbounds i32, ptr %17, i64 %idxprom44.i.i.i46
  %25 = load i32, ptr %arrayidx45.i.i.i47, align 4
  %cmp46.not.i.i.i48 = icmp eq i32 %25, %and.i7
  br i1 %cmp46.not.i.i.i48, label %if.end.sink.split, label %if.end

if.end.sink.split:                                ; preds = %lor.lhs.false.i.i.i45, %lor.lhs.false.i.i.i
  %26 = load i32, ptr %hitCount.i.i, align 4
  %add2.i.i51 = add nsw i32 %26, 1
  store i32 %add2.i.i51, ptr %hitCount.i.i, align 4
  br label %if.end

if.end:                                           ; preds = %if.end.sink.split, %lor.lhs.false.i.i.i45, %land.lhs.true.split, %lor.lhs.false.i.i.i, %if.then.split, %land.lhs.true
  %frombool = zext i1 %cmp4 to i8
  br label %if.end9

if.end9:                                          ; preds = %if.end, %while.body
  %ignoreSpace.1 = phi i8 [ %frombool, %if.end ], [ %ignoreSpace.057, %while.body ]
  %vtable = load ptr, ptr %this, align 8
  %vfn = getelementptr inbounds i8, ptr %vtable, i64 16
  %27 = load ptr, ptr %vfn, align 8
  %call = tail call noundef i32 %27(ptr noundef nonnull align 8 dereferenceable(48) %this, ptr noundef %det)
  %cmp = icmp sgt i32 %call, -1
  br i1 %cmp, label %while.body, label %while.end, !llvm.loop !4

while.end:                                        ; preds = %if.end9, %entry
  ret void
}